target datalayout = "e-m:e-p270:32:32-p271:32:32-p272:64:64-i64:64-i128:128-f80:128-n8:16:32:64-S128"
target triple = "x86_64-pc-linux-gnu"

%struct.agxbuf = type { %union.anon.1 }
%union.anon.1 = type { %struct.anon.2 }
%struct.anon.2 = type { ptr, i64, i64, [7 x i8], i8 }
%struct.__va_list_tag = type { i32, i32, ptr, ptr }

; Function Attrs: inlinehint nounwind uwtable
define internal ptr @agxbnext(ptr noundef %0) #2 {
  %2 = alloca ptr, align 8
  %3 = alloca i64, align 8
  store ptr %0, ptr %2, align 8, !tbaa !44
  call void @llvm.lifetime.start.p0(i64 8, ptr %3) #15
  %4 = load ptr, ptr %2, align 8, !tbaa !44
  %5 = call i64 @agxblen(ptr noundef %4)
  store i64 %5, ptr %3, align 8, !tbaa !41
  %6 = load ptr, ptr %2, align 8, !tbaa !44
  %7 = call zeroext i1 @agxbuf_is_inline(ptr noundef %6)
  br i1 %7, label %8, label %13

8:                                                ; preds = %1
  %9 = load ptr, ptr %2, align 8, !tbaa !44
  %10 = getelementptr inbounds nuw %struct.agxbuf, ptr %9, i32 0, i32 0
  %11 = load i64, ptr %3, align 8, !tbaa !41
  %12 = getelementptr inbounds nuw [31 x i8], ptr %10, i64 0, i64 %11
  br label %20

13:                                               ; preds = %1
  %14 = load ptr, ptr %2, align 8, !tbaa !44
  %15 = getelementptr inbounds nuw %struct.agxbuf, ptr %14, i32 0, i32 0
  %16 = getelementptr inbounds nuw %struct.anon.2, ptr %15, i32 0, i32 0
  %17 = load ptr, ptr %16, align 8, !tbaa !50
  %18 = load i64, ptr %3, align 8, !tbaa !41
  %19 = getelementptr inbounds nuw i8, ptr %17, i64 %18
  br label %20

20:                                               ; preds = %13, %8
  %21 = phi ptr [ %12, %8 ], [ %19, %13 ]
  call void @llvm.lifetime.end.p0(i64 8, ptr %3) #15
  ret ptr %21
}

; Function Attrs: inlinehint nounwind uwtable
define internal zeroext i1 @agxbuf_is_inline(ptr noundef %0) #2 {
  %2 = alloca ptr, align 8
  store ptr %0, ptr %2, align 8, !tbaa !44
  %3 = load ptr, ptr %2, align 8, !tbaa !44
  %4 = getelementptr inbounds nuw %struct.agxbuf, ptr %3, i32 0, i32 0
  %5 = getelementptr inbounds nuw %struct.anon.2, ptr %4, i32 0, i32 4
  %6 = load i8, ptr %5, align 1, !tbaa !50
  %7 = zext i8 %6 to i32
  %8 = icmp slt i32 %7, 255
  ret i1 %8
}

; Function Attrs: inlinehint nounwind uwtable
define internal i64 @agxblen(ptr noundef %0) #2 {
  %2 = alloca i64, align 8
  %3 = alloca ptr, align 8
  store ptr %0, ptr %3, align 8, !tbaa !44
  %4 = load ptr, ptr %3, align 8, !tbaa !44
  %5 = call zeroext i1 @agxbuf_is_inline(ptr noundef %4)
  br i1 %5, label %6, label %14

6:                                                ; preds = %1
  %7 = load ptr, ptr %3, align 8, !tbaa !44
  %8 = getelementptr inbounds nuw %struct.agxbuf, ptr %7, i32 0, i32 0
  %9 = getelementptr inbounds nuw %struct.anon.2, ptr %8, i32 0, i32 4
  %10 = load i8, ptr %9, align 1, !tbaa !50
  %11 = zext i8 %10 to i32
  %12 = sub nsw i32 %11, 0
  %13 = sext i32 %12 to i64
  store i64 %13, ptr %2, align 8
  br label %19

14:                                               ; preds = %1
  %15 = load ptr, ptr %3, align 8, !tbaa !44
  %16 = getelementptr inbounds nuw %struct.agxbuf, ptr %15, i32 0, i32 0
  %17 = getelementptr inbounds nuw %struct.anon.2, ptr %16, i32 0, i32 1
  %18 = load i64, ptr %17, align 8, !tbaa !50
  store i64 %18, ptr %2, align 8
  br label %19

19:                                               ; preds = %14, %6
  %20 = load i64, ptr %2, align 8
  ret i64 %20
}

; Function Attrs: inlinehint nounwind uwtable
define internal i64 @agxbsizeof(ptr noundef %0) #2 {
  %2 = alloca i64, align 8
  %3 = alloca ptr, align 8
  store ptr %0, ptr %3, align 8, !tbaa !44
  %4 = load ptr, ptr %3, align 8, !tbaa !44
  %5 = call zeroext i1 @agxbuf_is_inline(ptr noundef %4)
  br i1 %5, label %6, label %7

6:                                                ; preds = %1
  store i64 31, ptr %2, align 8
  br label %12

7:                                                ; preds = %1
  %8 = load ptr, ptr %3, align 8, !tbaa !44
  %9 = getelementptr inbounds nuw %struct.agxbuf, ptr %8, i32 0, i32 0
  %10 = getelementptr inbounds nuw %struct.anon.2, ptr %9, i32 0, i32 2
  %11 = load i64, ptr %10, align 8, !tbaa !50
  store i64 %11, ptr %2, align 8
  br label %12

12:                                               ; preds = %7, %6
  %13 = load i64, ptr %2, align 8
  ret i64 %13
}

; Function Attrs: inlinehint nounwind uwtable
define internal i32 @vagxbprint(ptr noundef %0, ptr noundef %1, ptr noundef %2) #2 {
  %4 = alloca i32, align 4
  %5 = alloca ptr, align 8
  %6 = alloca ptr, align 8
  %7 = alloca ptr, align 8
  %8 = alloca i64, align 8
  %9 = alloca i32, align 4
  %10 = alloca [1 x %struct.__va_list_tag], align 16
  %11 = alloca i32, align 4
  %12 = alloca i32, align 4
  %13 = alloca i8, align 1
  %14 = alloca i64, align 8
  %15 = alloca i64, align 8
  %16 = alloca [32 x i8], align 16
  %17 = alloca ptr, align 8
  store ptr %0, ptr %5, align 8, !tbaa !44
  store ptr %1, ptr %6, align 8, !tbaa !49
  store ptr %2, ptr %7, align 8, !tbaa !145
  call void @llvm.lifetime.start.p0(i64 8, ptr %8) #15
  call void @llvm.lifetime.start.p0(i64 4, ptr %9) #15
  call void @llvm.lifetime.start.p0(i64 24, ptr %10) #15
  call void @llvm.lifetime.start.p0(i64 4, ptr %11) #15
  %18 = getelementptr inbounds [1 x %struct.__va_list_tag], ptr %10, i64 0, i64 0
  %19 = load ptr, ptr %7, align 8, !tbaa !145
  call void @llvm.va_copy.p0(ptr %18, ptr %19)
  %20 = load ptr, ptr %6, align 8, !tbaa !49
  %21 = getelementptr inbounds [1 x %struct.__va_list_tag], ptr %10, i64 0, i64 0
  %22 = call i32 @vsnprintf(ptr noundef null, i64 noundef 0, ptr noundef %20, ptr noundef %21) #15
  store i32 %22, ptr %11, align 4, !tbaa !47
  %23 = getelementptr inbounds [1 x %struct.__va_list_tag], ptr %10, i64 0, i64 0
  call void @llvm.va_end.p0(ptr %23)
  %24 = load i32, ptr %11, align 4, !tbaa !47
  %25 = icmp slt i32 %24, 0
  br i1 %25, label %26, label %29

26:                                               ; preds = %3
  %27 = load ptr, ptr %7, align 8, !tbaa !145
  call void @llvm.va_end.p0(ptr %27)
  %28 = load i32, ptr %11, align 4, !tbaa !47
  store i32 %28, ptr %4, align 4
  store i32 1, ptr %12, align 4
  br label %33

29:                                               ; preds = %3
  %30 = load i32, ptr %11, align 4, !tbaa !47
  %31 = sext i32 %30 to i64
  %32 = add i64 %31, 1
  store i64 %32, ptr %8, align 8, !tbaa !41
  store i32 0, ptr %12, align 4
  br label %33

33:                                               ; preds = %29, %26
  call void @llvm.lifetime.end.p0(i64 4, ptr %11) #15
  call void @llvm.lifetime.end.p0(i64 24, ptr %10) #15
  %34 = load i32, ptr %12, align 4
  switch i32 %34, label %109 [
    i32 0, label %35
  ]

35:                                               ; preds = %33
  call void @llvm.lifetime.start.p0(i64 1, ptr %13) #15
  store i8 0, ptr %13, align 1, !tbaa !62
  call void @llvm.lifetime.start.p0(i64 8, ptr %14) #15
  %36 = load ptr, ptr %5, align 8, !tbaa !44
  %37 = call i64 @agxbsizeof(ptr noundef %36)
  %38 = load ptr, ptr %5, align 8, !tbaa !44
  %39 = call i64 @agxblen(ptr noundef %38)
  %40 = sub i64 %37, %39
  store i64 %40, ptr %14, align 8, !tbaa !41
  %41 = load i64, ptr %14, align 8, !tbaa !41
  %42 = load i64, ptr %8, align 8, !tbaa !41
  %43 = icmp ult i64 %41, %42
  br i1 %43, label %44, label %58

44:                                               ; preds = %35
  call void @llvm.lifetime.start.p0(i64 8, ptr %15) #15
  %45 = load i64, ptr %8, align 8, !tbaa !41
  %46 = load i64, ptr %14, align 8, !tbaa !41
  %47 = sub i64 %45, %46
  store i64 %47, ptr %15, align 8, !tbaa !41
  %48 = load ptr, ptr %5, align 8, !tbaa !44
  %49 = call zeroext i1 @agxbuf_is_inline(ptr noundef %48)
  br i1 %49, label %50, label %54

50:                                               ; preds = %44
  %51 = load i64, ptr %15, align 8, !tbaa !41
  %52 = icmp eq i64 %51, 1
  br i1 %52, label %53, label %54

53:                                               ; preds = %50
  store i8 1, ptr %13, align 1, !tbaa !62
  br label %57

54:                                               ; preds = %50, %44
  %55 = load ptr, ptr %5, align 8, !tbaa !44
  %56 = load i64, ptr %15, align 8, !tbaa !41
  call void @agxbmore(ptr noundef %55, i64 noundef %56)
  br label %57

57:                                               ; preds = %54, %53
  call void @llvm.lifetime.end.p0(i64 8, ptr %15) #15
  br label %58

58:                                               ; preds = %57, %35
  call void @llvm.lifetime.end.p0(i64 8, ptr %14) #15
  call void @llvm.lifetime.start.p0(i64 32, ptr %16) #15
  call void @llvm.memset.p0.i64(ptr align 16 %16, i8 0, i64 32, i1 false)
  call void @llvm.lifetime.start.p0(i64 8, ptr %17) #15
  %59 = load i8, ptr %13, align 1, !tbaa !62, !range !77, !noundef !78
  %60 = trunc i8 %59 to i1
  br i1 %60, label %61, label %63

61:                                               ; preds = %58
  %62 = getelementptr inbounds [32 x i8], ptr %16, i64 0, i64 0
  br label %66

63:                                               ; preds = %58
  %64 = load ptr, ptr %5, align 8, !tbaa !44
  %65 = call ptr @agxbnext(ptr noundef %64)
  br label %66

66:                                               ; preds = %63, %61
  %67 = phi ptr [ %62, %61 ], [ %65, %63 ]
  store ptr %67, ptr %17, align 8, !tbaa !49
  %68 = load ptr, ptr %17, align 8, !tbaa !49
  %69 = load i64, ptr %8, align 8, !tbaa !41
  %70 = load ptr, ptr %6, align 8, !tbaa !49
  %71 = load ptr, ptr %7, align 8, !tbaa !145
  %72 = call i32 @vsnprintf(ptr noundef %68, i64 noundef %69, ptr noundef %70, ptr noundef %71) #15
  store i32 %72, ptr %9, align 4, !tbaa !47
  %73 = load i32, ptr %9, align 4, !tbaa !47
  %74 = icmp sgt i32 %73, 0
  br i1 %74, label %75, label %107

75:                                               ; preds = %66
  %76 = load ptr, ptr %5, align 8, !tbaa !44
  %77 = call zeroext i1 @agxbuf_is_inline(ptr noundef %76)
  br i1 %77, label %78, label %98

78:                                               ; preds = %75
  %79 = load i8, ptr %13, align 1, !tbaa !62, !range !77, !noundef !78
  %80 = trunc i8 %79 to i1
  br i1 %80, label %81, label %87

81:                                               ; preds = %78
  %82 = load ptr, ptr %5, align 8, !tbaa !44
  %83 = call ptr @agxbnext(ptr noundef %82)
  %84 = getelementptr inbounds [32 x i8], ptr %16, i64 0, i64 0
  %85 = load i32, ptr %9, align 4, !tbaa !47
  %86 = sext i32 %85 to i64
  call void @llvm.memcpy.p0.p0.i64(ptr align 1 %83, ptr align 16 %84, i64 %86, i1 false)
  br label %87

87:                                               ; preds = %81, %78
  %88 = load i32, ptr %9, align 4, !tbaa !47
  %89 = trunc i32 %88 to i8
  %90 = zext i8 %89 to i32
  %91 = load ptr, ptr %5, align 8, !tbaa !44
  %92 = getelementptr inbounds nuw %struct.agxbuf, ptr %91, i32 0, i32 0
  %93 = getelementptr inbounds nuw %struct.anon.2, ptr %92, i32 0, i32 4
  %94 = load i8, ptr %93, align 1, !tbaa !50
  %95 = zext i8 %94 to i32
  %96 = add nsw i32 %95, %90
  %97 = trunc i32 %96 to i8
  store i8 %97, ptr %93, align 1, !tbaa !50
  br label %106

98:                                               ; preds = %75
  %99 = load i32, ptr %9, align 4, !tbaa !47
  %100 = sext i32 %99 to i64
  %101 = load ptr, ptr %5, align 8, !tbaa !44
  %102 = getelementptr inbounds nuw %struct.agxbuf, ptr %101, i32 0, i32 0
  %103 = getelementptr inbounds nuw %struct.anon.2, ptr %102, i32 0, i32 1
  %104 = load i64, ptr %103, align 8, !tbaa !50
  %105 = add i64 %104, %100
  store i64 %105, ptr %103, align 8, !tbaa !50
  br label %106

106:                                              ; preds = %98, %87
  br label %107

107:                                              ; preds = %106, %66
  %108 = load i32, ptr %9, align 4, !tbaa !47
  store i32 %108, ptr %4, align 4
  store i32 1, ptr %12, align 4
  call void @llvm.lifetime.end.p0(i64 8, ptr %17) #15
  call void @llvm.lifetime.end.p0(i64 32, ptr %16) #15
  call void @llvm.lifetime.end.p0(i64 1, ptr %13) #15
  br label %109

109:                                              ; preds = %107, %33
  call void @llvm.lifetime.end.p0(i64 4, ptr %9) #15
  call void @llvm.lifetime.end.p0(i64 8, ptr %8) #15
  %110 = load i32, ptr %4, align 4
  ret i32 %110
}

; Function Attrs: inlinehint nounwind uwtable
define internal i32 @agxbprint(ptr noundef %0, ptr noundef %1, ...) #2 {
  %3 = alloca ptr, align 8
  %4 = alloca ptr, align 8
  %5 = alloca [1 x %struct.__va_list_tag], align 16
  %6 = alloca i32, align 4
  store ptr %0, ptr %3, align 8, !tbaa !44
  store ptr %1, ptr %4, align 8, !tbaa !49
  call void @llvm.lifetime.start.p0(i64 24, ptr %5) #15
  call void @llvm.lifetime.start.p0(i64 4, ptr %6) #15
  %7 = getelementptr inbounds [1 x %struct.__va_list_tag], ptr %5, i64 0, i64 0
  call void @llvm.va_start.p0(ptr %7)
  %8 = load ptr, ptr %3, align 8, !tbaa !44
  %9 = load ptr, ptr %4, align 8, !tbaa !49
  %10 = getelementptr inbounds [1 x %struct.__va_list_tag], ptr %5, i64 0, i64 0
  %11 = call i32 @vagxbprint(ptr noundef %8, ptr noundef %9, ptr noundef %10)
  store i32 %11, ptr %6, align 4, !tbaa !47
  %12 = getelementptr inbounds [1 x %struct.__va_list_tag], ptr %5, i64 0, i64 0
  call void @llvm.va_end.p0(ptr %12)
  %13 = load i32, ptr %6, align 4, !tbaa !47
  call void @llvm.lifetime.end.p0(i64 4, ptr %6) #15
  call void @llvm.lifetime.end.p0(i64 24, ptr %5) #15
  ret i32 %13
}